; Function Attrs: mustprogress nofree norecurse nosync nounwind willreturn memory(read, inaccessiblemem: none) uwtable
define internal fastcc zeroext i1 @zend_optimizer_ignore_class(ptr noundef nonnull %0, ptr noundef readnone captures(address) %1) unnamed_addr #10 {
  %3 = load ptr, ptr %0, align 8, !tbaa !20
  %4 = getelementptr inbounds nuw i8, ptr %3, i64 28
  %5 = load i32, ptr %4, align 4, !tbaa !120
  %6 = and i32 %5, 1024
  %.not = icmp eq i32 %6, 0
  br i1 %.not, label %17, label %7

7:                                                ; preds = %2
  %8 = ptrtoint ptr %0 to i64
  %9 = load ptr, ptr getelementptr inbounds nuw (i8, ptr @executor_globals, i64 464), align 8, !tbaa !131
  %10 = getelementptr inbounds nuw i8, ptr %9, i64 16
  %11 = load ptr, ptr %10, align 8, !tbaa !20
  %12 = ptrtoint ptr %11 to i64
  %13 = sub i64 %8, %12
  %14 = ashr exact i64 %13, 5
  %15 = load i32, ptr getelementptr inbounds nuw (i8, ptr @executor_globals, i64 568), align 8, !tbaa !132
  %16 = zext i32 %15 to i64
  %.not12 = icmp ult i64 %14, %16
  br i1 %.not12, label %24, label %17

17:                                               ; preds = %7, %2
  %18 = load i8, ptr %3, align 8, !tbaa !133
  %19 = icmp eq i8 %18, 2
  br i1 %19, label %20, label %24

20:                                               ; preds = %17
  %21 = getelementptr inbounds nuw i8, ptr %3, i64 504
  %22 = load ptr, ptr %21, align 8, !tbaa !20
  %.not13 = icmp eq ptr %22, null
  %23 = icmp ne ptr %22, %1
  %spec.select = or i1 %.not13, %23
  br label %24

24:                                               ; preds = %20, %17, %7
  %.1 = phi i1 [ false, %7 ], [ false, %17 ], [ %spec.select, %20 ]
  ret i1 %.1
}